target datalayout = "e-m:e-p270:32:32-p271:32:32-p272:64:64-i64:64-i128:128-f80:128-n8:16:32:64-S128"
target triple = "x86_64-pc-linux-gnu"

%"class.pstd::optional.21" = type { %"union.std::aligned_storage<52, 4>::type", i8, [3 x i8] }
%"union.std::aligned_storage<52, 4>::type" = type { [52 x i8] }
%class.anon.106 = type { i8 }
%"class.pbrt::TaggedPointer.102" = type { i64 }

; Function Attrs: mustprogress nounwind uwtable
define linkonce_odr dso_local void @_ZNK4pbrt24PortalImageInfiniteLight6BoundsEv(ptr dead_on_unwind noalias writable sret(%"class.pstd::optional.21") align 4 %0, ptr noundef nonnull align 8 dereferenceable(516) %1) #6 comdat align 2 {
  %3 = alloca ptr, align 8
  %4 = alloca ptr, align 8
  store ptr %0, ptr %3, align 8
  store ptr %1, ptr %4, align 8, !tbaa !408
  call void @llvm.memset.p0.i64(ptr align 4 %0, i8 0, i64 56, i1 false)
  call void @_ZN4pstd8optionalIN4pbrt11LightBoundsEEC2Ev(ptr noundef nonnull align 4 dereferenceable(53) %0) #22
  ret void
}

; Function Attrs: mustprogress nounwind uwtable
define linkonce_odr dso_local void @_ZN4pstd8optionalIN4pbrt11LightBoundsEEC2Ev(ptr noundef nonnull align 4 dereferenceable(53) %0) unnamed_addr #6 comdat align 2 {
  %2 = alloca ptr, align 8
  store ptr %0, ptr %2, align 8, !tbaa !144
  %3 = load ptr, ptr %2, align 8
  %4 = getelementptr inbounds nuw %"class.pstd::optional.21", ptr %3, i32 0, i32 1
  store i8 0, ptr %4, align 4, !tbaa !146
  ret void
}

; Function Attrs: inlinehint mustprogress uwtable
define internal void @"_ZZNK4pbrt5Light6BoundsEvENK3$_0clIPKNS_24PortalImageInfiniteLightEEEDaT_"(ptr dead_on_unwind noalias writable sret(%"class.pstd::optional.21") align 4 %0, ptr noundef nonnull align 1 dereferenceable(1) %1, ptr noundef %2) #5 align 2 {
  %4 = alloca ptr, align 8
  %5 = alloca ptr, align 8
  %6 = alloca ptr, align 8
  store ptr %0, ptr %4, align 8
  store ptr %1, ptr %5, align 8, !tbaa !13
  store ptr %2, ptr %6, align 8, !tbaa !408
  %7 = load ptr, ptr %6, align 8, !tbaa !408
  call void @_ZNK4pbrt24PortalImageInfiniteLight6BoundsEv(ptr dead_on_unwind writable sret(%"class.pstd::optional.21") align 4 %0, ptr noundef nonnull align 8 dereferenceable(516) %7)
  ret void
}

; Function Attrs: mustprogress nounwind uwtable
define linkonce_odr dso_local void @_ZNK4pbrt18ImageInfiniteLight6BoundsEv(ptr dead_on_unwind noalias writable sret(%"class.pstd::optional.21") align 4 %0, ptr noundef nonnull align 8 dereferenceable(592) %1) #6 comdat align 2 {
  %3 = alloca ptr, align 8
  %4 = alloca ptr, align 8
  store ptr %0, ptr %3, align 8
  store ptr %1, ptr %4, align 8, !tbaa !393
  call void @llvm.memset.p0.i64(ptr align 4 %0, i8 0, i64 56, i1 false)
  call void @_ZN4pstd8optionalIN4pbrt11LightBoundsEEC2Ev(ptr noundef nonnull align 4 dereferenceable(53) %0) #22
  ret void
}

; Function Attrs: mustprogress nounwind uwtable
define linkonce_odr dso_local void @_ZNK4pbrt20UniformInfiniteLight6BoundsEv(ptr dead_on_unwind noalias writable sret(%"class.pstd::optional.21") align 4 %0, ptr noundef nonnull align 8 dereferenceable(180) %1) #6 comdat align 2 {
  %3 = alloca ptr, align 8
  %4 = alloca ptr, align 8
  store ptr %0, ptr %3, align 8
  store ptr %1, ptr %4, align 8, !tbaa !387
  call void @llvm.memset.p0.i64(ptr align 4 %0, i8 0, i64 56, i1 false)
  call void @_ZN4pstd8optionalIN4pbrt11LightBoundsEEC2Ev(ptr noundef nonnull align 4 dereferenceable(53) %0) #22
  ret void
}

; Function Attrs: mustprogress nounwind uwtable
define linkonce_odr dso_local void @_ZNK4pbrt12DistantLight6BoundsEv(ptr dead_on_unwind noalias writable sret(%"class.pstd::optional.21") align 4 %0, ptr noundef nonnull align 8 dereferenceable(180) %1) #6 comdat align 2 {
  %3 = alloca ptr, align 8
  %4 = alloca ptr, align 8
  store ptr %0, ptr %3, align 8
  store ptr %1, ptr %4, align 8, !tbaa !169
  call void @llvm.memset.p0.i64(ptr align 4 %0, i8 0, i64 56, i1 false)
  call void @_ZN4pstd8optionalIN4pbrt11LightBoundsEEC2Ev(ptr noundef nonnull align 4 dereferenceable(53) %0) #22
  ret void
}

; Function Attrs: mustprogress uwtable
define internal void @"_ZN4pbrt6detail11DispatchCPUIRZNKS_5Light6BoundsEvE3$_0N4pstd8optionalINS_11LightBoundsEEENS_24PortalImageInfiniteLightEEEDaOT_PKvi"(ptr dead_on_unwind noalias writable sret(%"class.pstd::optional.21") align 4 %0, ptr noundef nonnull align 1 dereferenceable(1) %1, ptr noundef %2, i32 noundef %3) #1 {
  %5 = alloca ptr, align 8
  %6 = alloca ptr, align 8
  %7 = alloca ptr, align 8
  %8 = alloca i32, align 4
  store ptr %0, ptr %5, align 8
  store ptr %1, ptr %6, align 8, !tbaa !13
  store ptr %2, ptr %7, align 8, !tbaa !13
  store i32 %3, ptr %8, align 4, !tbaa !61
  br label %9

9:                                                ; preds = %4
  br label %10

10:                                               ; preds = %9
  %11 = load ptr, ptr %6, align 8, !tbaa !13
  %12 = load ptr, ptr %7, align 8, !tbaa !13
  call void @"_ZZNK4pbrt5Light6BoundsEvENK3$_0clIPKNS_24PortalImageInfiniteLightEEEDaT_"(ptr dead_on_unwind writable sret(%"class.pstd::optional.21") align 4 %0, ptr noundef nonnull align 1 dereferenceable(1) %11, ptr noundef %12)
  ret void
}

; Function Attrs: inlinehint mustprogress uwtable
define internal void @"_ZZNK4pbrt5Light6BoundsEvENK3$_0clIPKNS_18ImageInfiniteLightEEEDaT_"(ptr dead_on_unwind noalias writable sret(%"class.pstd::optional.21") align 4 %0, ptr noundef nonnull align 1 dereferenceable(1) %1, ptr noundef %2) #5 align 2 {
  %4 = alloca ptr, align 8
  %5 = alloca ptr, align 8
  %6 = alloca ptr, align 8
  store ptr %0, ptr %4, align 8
  store ptr %1, ptr %5, align 8, !tbaa !13
  store ptr %2, ptr %6, align 8, !tbaa !393
  %7 = load ptr, ptr %6, align 8, !tbaa !393
  call void @_ZNK4pbrt18ImageInfiniteLight6BoundsEv(ptr dead_on_unwind writable sret(%"class.pstd::optional.21") align 4 %0, ptr noundef nonnull align 8 dereferenceable(592) %7)
  ret void
}

; Function Attrs: inlinehint mustprogress uwtable
define internal void @"_ZZNK4pbrt5Light6BoundsEvENK3$_0clIPKNS_20UniformInfiniteLightEEEDaT_"(ptr dead_on_unwind noalias writable sret(%"class.pstd::optional.21") align 4 %0, ptr noundef nonnull align 1 dereferenceable(1) %1, ptr noundef %2) #5 align 2 {
  %4 = alloca ptr, align 8
  %5 = alloca ptr, align 8
  %6 = alloca ptr, align 8
  store ptr %0, ptr %4, align 8
  store ptr %1, ptr %5, align 8, !tbaa !13
  store ptr %2, ptr %6, align 8, !tbaa !387
  %7 = load ptr, ptr %6, align 8, !tbaa !387
  call void @_ZNK4pbrt20UniformInfiniteLight6BoundsEv(ptr dead_on_unwind writable sret(%"class.pstd::optional.21") align 4 %0, ptr noundef nonnull align 8 dereferenceable(180) %7)
  ret void
}

; Function Attrs: inlinehint mustprogress uwtable
define internal void @"_ZZNK4pbrt5Light6BoundsEvENK3$_0clIPKNS_16DiffuseAreaLightEEEDaT_"(ptr dead_on_unwind noalias writable sret(%"class.pstd::optional.21") align 4 %0, ptr noundef nonnull align 1 dereferenceable(1) %1, ptr noundef %2) #5 align 2 {
  %4 = alloca ptr, align 8
  %5 = alloca ptr, align 8
  %6 = alloca ptr, align 8
  store ptr %0, ptr %4, align 8
  store ptr %1, ptr %5, align 8, !tbaa !13
  store ptr %2, ptr %6, align 8, !tbaa !336
  %7 = load ptr, ptr %6, align 8, !tbaa !336
  call void @_ZNK4pbrt16DiffuseAreaLight6BoundsEv(ptr dead_on_unwind writable sret(%"class.pstd::optional.21") align 4 %0, ptr noundef nonnull align 8 dereferenceable(352) %7)
  ret void
}

; Function Attrs: inlinehint mustprogress uwtable
define internal void @"_ZZNK4pbrt5Light6BoundsEvENK3$_0clIPKNS_9SpotLightEEEDaT_"(ptr dead_on_unwind noalias writable sret(%"class.pstd::optional.21") align 4 %0, ptr noundef nonnull align 1 dereferenceable(1) %1, ptr noundef %2) #5 align 2 {
  %4 = alloca ptr, align 8
  %5 = alloca ptr, align 8
  %6 = alloca ptr, align 8
  store ptr %0, ptr %4, align 8
  store ptr %1, ptr %5, align 8, !tbaa !13
  store ptr %2, ptr %6, align 8, !tbaa !460
  %7 = load ptr, ptr %6, align 8, !tbaa !460
  call void @_ZNK4pbrt9SpotLight6BoundsEv(ptr dead_on_unwind writable sret(%"class.pstd::optional.21") align 4 %0, ptr noundef nonnull align 8 dereferenceable(172) %7)
  ret void
}

; Function Attrs: inlinehint mustprogress uwtable
define internal void @"_ZZNK4pbrt5Light6BoundsEvENK3$_0clIPKNS_16GoniometricLightEEEDaT_"(ptr dead_on_unwind noalias writable sret(%"class.pstd::optional.21") align 4 %0, ptr noundef nonnull align 1 dereferenceable(1) %1, ptr noundef %2) #5 align 2 {
  %4 = alloca ptr, align 8
  %5 = alloca ptr, align 8
  %6 = alloca ptr, align 8
  store ptr %0, ptr %4, align 8
  store ptr %1, ptr %5, align 8, !tbaa !13
  store ptr %2, ptr %6, align 8, !tbaa !312
  %7 = load ptr, ptr %6, align 8, !tbaa !312
  call void @_ZNK4pbrt16GoniometricLight6BoundsEv(ptr dead_on_unwind writable sret(%"class.pstd::optional.21") align 4 %0, ptr noundef nonnull align 8 dereferenceable(448) %7)
  ret void
}

; Function Attrs: inlinehint mustprogress uwtable
define internal void @"_ZZNK4pbrt5Light6BoundsEvENK3$_0clIPKNS_15ProjectionLightEEEDaT_"(ptr dead_on_unwind noalias writable sret(%"class.pstd::optional.21") align 4 %0, ptr noundef nonnull align 1 dereferenceable(1) %1, ptr noundef %2) #5 align 2 {
  %4 = alloca ptr, align 8
  %5 = alloca ptr, align 8
  %6 = alloca ptr, align 8
  store ptr %0, ptr %4, align 8
  store ptr %1, ptr %5, align 8, !tbaa !13
  store ptr %2, ptr %6, align 8, !tbaa !186
  %7 = load ptr, ptr %6, align 8, !tbaa !186
  call void @_ZNK4pbrt15ProjectionLight6BoundsEv(ptr dead_on_unwind writable sret(%"class.pstd::optional.21") align 4 %0, ptr noundef nonnull align 8 dereferenceable(728) %7)
  ret void
}

; Function Attrs: inlinehint mustprogress uwtable
define internal void @"_ZZNK4pbrt5Light6BoundsEvENK3$_0clIPKNS_12DistantLightEEEDaT_"(ptr dead_on_unwind noalias writable sret(%"class.pstd::optional.21") align 4 %0, ptr noundef nonnull align 1 dereferenceable(1) %1, ptr noundef %2) #5 align 2 {
  %4 = alloca ptr, align 8
  %5 = alloca ptr, align 8
  %6 = alloca ptr, align 8
  store ptr %0, ptr %4, align 8
  store ptr %1, ptr %5, align 8, !tbaa !13
  store ptr %2, ptr %6, align 8, !tbaa !169
  %7 = load ptr, ptr %6, align 8, !tbaa !169
  call void @_ZNK4pbrt12DistantLight6BoundsEv(ptr dead_on_unwind writable sret(%"class.pstd::optional.21") align 4 %0, ptr noundef nonnull align 8 dereferenceable(180) %7)
  ret void
}

; Function Attrs: inlinehint mustprogress uwtable
define internal void @"_ZZNK4pbrt5Light6BoundsEvENK3$_0clIPKNS_10PointLightEEEDaT_"(ptr dead_on_unwind noalias writable sret(%"class.pstd::optional.21") align 4 %0, ptr noundef nonnull align 1 dereferenceable(1) %1, ptr noundef %2) #5 align 2 {
  %4 = alloca ptr, align 8
  %5 = alloca ptr, align 8
  %6 = alloca ptr, align 8
  store ptr %0, ptr %4, align 8
  store ptr %1, ptr %5, align 8, !tbaa !13
  store ptr %2, ptr %6, align 8, !tbaa !134
  %7 = load ptr, ptr %6, align 8, !tbaa !134
  call void @_ZNK4pbrt10PointLight6BoundsEv(ptr dead_on_unwind writable sret(%"class.pstd::optional.21") align 4 %0, ptr noundef nonnull align 8 dereferenceable(164) %7)
  ret void
}

; Function Attrs: mustprogress uwtable
define internal void @"_ZN4pbrt6detail11DispatchCPUIRZNKS_5Light6BoundsEvE3$_0N4pstd8optionalINS_11LightBoundsEEENS_10PointLightENS_12DistantLightENS_15ProjectionLightENS_16GoniometricLightENS_9SpotLightENS_16DiffuseAreaLightENS_20UniformInfiniteLightENS_18ImageInfiniteLightEJNS_24PortalImageInfiniteLightEEvEEDaOT_PKvi"(ptr dead_on_unwind noalias writable sret(%"class.pstd::optional.21") align 4 %0, ptr noundef nonnull align 1 dereferenceable(1) %1, ptr noundef %2, i32 noundef %3) #1 {
  %5 = alloca ptr, align 8
  %6 = alloca ptr, align 8
  %7 = alloca ptr, align 8
  %8 = alloca i32, align 4
  store ptr %0, ptr %5, align 8
  store ptr %1, ptr %6, align 8, !tbaa !13
  store ptr %2, ptr %7, align 8, !tbaa !13
  store i32 %3, ptr %8, align 4, !tbaa !61
  br label %9

9:                                                ; preds = %4
  br label %10

10:                                               ; preds = %9
  %11 = load i32, ptr %8, align 4, !tbaa !61
  switch i32 %11, label %36 [
    i32 0, label %12
    i32 1, label %15
    i32 2, label %18
    i32 3, label %21
    i32 4, label %24
    i32 5, label %27
    i32 6, label %30
    i32 7, label %33
  ]

12:                                               ; preds = %10
  %13 = load ptr, ptr %6, align 8, !tbaa !13
  %14 = load ptr, ptr %7, align 8, !tbaa !13
  call void @"_ZZNK4pbrt5Light6BoundsEvENK3$_0clIPKNS_10PointLightEEEDaT_"(ptr dead_on_unwind writable sret(%"class.pstd::optional.21") align 4 %0, ptr noundef nonnull align 1 dereferenceable(1) %13, ptr noundef %14)
  br label %41

15:                                               ; preds = %10
  %16 = load ptr, ptr %6, align 8, !tbaa !13
  %17 = load ptr, ptr %7, align 8, !tbaa !13
  call void @"_ZZNK4pbrt5Light6BoundsEvENK3$_0clIPKNS_12DistantLightEEEDaT_"(ptr dead_on_unwind writable sret(%"class.pstd::optional.21") align 4 %0, ptr noundef nonnull align 1 dereferenceable(1) %16, ptr noundef %17)
  br label %41

18:                                               ; preds = %10
  %19 = load ptr, ptr %6, align 8, !tbaa !13
  %20 = load ptr, ptr %7, align 8, !tbaa !13
  call void @"_ZZNK4pbrt5Light6BoundsEvENK3$_0clIPKNS_15ProjectionLightEEEDaT_"(ptr dead_on_unwind writable sret(%"class.pstd::optional.21") align 4 %0, ptr noundef nonnull align 1 dereferenceable(1) %19, ptr noundef %20)
  br label %41

21:                                               ; preds = %10
  %22 = load ptr, ptr %6, align 8, !tbaa !13
  %23 = load ptr, ptr %7, align 8, !tbaa !13
  call void @"_ZZNK4pbrt5Light6BoundsEvENK3$_0clIPKNS_16GoniometricLightEEEDaT_"(ptr dead_on_unwind writable sret(%"class.pstd::optional.21") align 4 %0, ptr noundef nonnull align 1 dereferenceable(1) %22, ptr noundef %23)
  br label %41

24:                                               ; preds = %10
  %25 = load ptr, ptr %6, align 8, !tbaa !13
  %26 = load ptr, ptr %7, align 8, !tbaa !13
  call void @"_ZZNK4pbrt5Light6BoundsEvENK3$_0clIPKNS_9SpotLightEEEDaT_"(ptr dead_on_unwind writable sret(%"class.pstd::optional.21") align 4 %0, ptr noundef nonnull align 1 dereferenceable(1) %25, ptr noundef %26)
  br label %41

27:                                               ; preds = %10
  %28 = load ptr, ptr %6, align 8, !tbaa !13
  %29 = load ptr, ptr %7, align 8, !tbaa !13
  call void @"_ZZNK4pbrt5Light6BoundsEvENK3$_0clIPKNS_16DiffuseAreaLightEEEDaT_"(ptr dead_on_unwind writable sret(%"class.pstd::optional.21") align 4 %0, ptr noundef nonnull align 1 dereferenceable(1) %28, ptr noundef %29)
  br label %41

30:                                               ; preds = %10
  %31 = load ptr, ptr %6, align 8, !tbaa !13
  %32 = load ptr, ptr %7, align 8, !tbaa !13
  call void @"_ZZNK4pbrt5Light6BoundsEvENK3$_0clIPKNS_20UniformInfiniteLightEEEDaT_"(ptr dead_on_unwind writable sret(%"class.pstd::optional.21") align 4 %0, ptr noundef nonnull align 1 dereferenceable(1) %31, ptr noundef %32)
  br label %41

33:                                               ; preds = %10
  %34 = load ptr, ptr %6, align 8, !tbaa !13
  %35 = load ptr, ptr %7, align 8, !tbaa !13
  call void @"_ZZNK4pbrt5Light6BoundsEvENK3$_0clIPKNS_18ImageInfiniteLightEEEDaT_"(ptr dead_on_unwind writable sret(%"class.pstd::optional.21") align 4 %0, ptr noundef nonnull align 1 dereferenceable(1) %34, ptr noundef %35)
  br label %41

36:                                               ; preds = %10
  %37 = load ptr, ptr %6, align 8, !tbaa !13
  %38 = load ptr, ptr %7, align 8, !tbaa !13
  %39 = load i32, ptr %8, align 4, !tbaa !61
  %40 = sub nsw i32 %39, 8
  call void @"_ZN4pbrt6detail11DispatchCPUIRZNKS_5Light6BoundsEvE3$_0N4pstd8optionalINS_11LightBoundsEEENS_24PortalImageInfiniteLightEEEDaOT_PKvi"(ptr dead_on_unwind writable sret(%"class.pstd::optional.21") align 4 %0, ptr noundef nonnull align 1 dereferenceable(1) %37, ptr noundef %38, i32 noundef %40)
  br label %41

41:                                               ; preds = %36, %33, %30, %27, %24, %21, %18, %15, %12
  ret void
}

; Function Attrs: mustprogress nounwind uwtable
define linkonce_odr dso_local noundef i32 @_ZNK4pbrt13TaggedPointerIJNS_10PointLightENS_12DistantLightENS_15ProjectionLightENS_16GoniometricLightENS_9SpotLightENS_16DiffuseAreaLightENS_20UniformInfiniteLightENS_18ImageInfiniteLightENS_24PortalImageInfiniteLightEEE3TagEv(ptr noundef nonnull align 8 dereferenceable(8) %0) #6 comdat align 2 {
  %2 = alloca ptr, align 8
  store ptr %0, ptr %2, align 8, !tbaa !477
  %3 = load ptr, ptr %2, align 8
  %4 = getelementptr inbounds nuw %"class.pbrt::TaggedPointer.102", ptr %3, i32 0, i32 0
  %5 = load i64, ptr %4, align 8, !tbaa !481
  %6 = and i64 %5, -144115188075855872
  %7 = lshr i64 %6, 57
  %8 = trunc i64 %7 to i32
  ret i32 %8
}

; Function Attrs: mustprogress nounwind uwtable
define linkonce_odr dso_local noundef ptr @_ZNK4pbrt13TaggedPointerIJNS_10PointLightENS_12DistantLightENS_15ProjectionLightENS_16GoniometricLightENS_9SpotLightENS_16DiffuseAreaLightENS_20UniformInfiniteLightENS_18ImageInfiniteLightENS_24PortalImageInfiniteLightEEE3ptrEv(ptr noundef nonnull align 8 dereferenceable(8) %0) #6 comdat align 2 {
  %2 = alloca ptr, align 8
  store ptr %0, ptr %2, align 8, !tbaa !477
  %3 = load ptr, ptr %2, align 8
  %4 = getelementptr inbounds nuw %"class.pbrt::TaggedPointer.102", ptr %3, i32 0, i32 0
  %5 = load i64, ptr %4, align 8, !tbaa !481
  %6 = and i64 %5, 144115188075855871
  %7 = inttoptr i64 %6 to ptr
  ret ptr %7
}

; Function Attrs: mustprogress uwtable
define internal void @"_ZNK4pbrt13TaggedPointerIJNS_10PointLightENS_12DistantLightENS_15ProjectionLightENS_16GoniometricLightENS_9SpotLightENS_16DiffuseAreaLightENS_20UniformInfiniteLightENS_18ImageInfiniteLightENS_24PortalImageInfiniteLightEEE11DispatchCPUIRZNKS_5Light6BoundsEvE3$_0EEDcOT_"(ptr dead_on_unwind noalias writable sret(%"class.pstd::optional.21") align 4 %0, ptr noundef nonnull align 8 dereferenceable(8) %1, ptr noundef nonnull align 1 dereferenceable(1) %2) #1 align 2 {
  %4 = alloca ptr, align 8
  %5 = alloca ptr, align 8
  %6 = alloca ptr, align 8
  store ptr %0, ptr %4, align 8
  store ptr %1, ptr %5, align 8, !tbaa !477
  store ptr %2, ptr %6, align 8, !tbaa !13
  %7 = load ptr, ptr %5, align 8
  br label %8

8:                                                ; preds = %3
  br label %9

9:                                                ; preds = %8
  %10 = load ptr, ptr %6, align 8, !tbaa !13
  %11 = call noundef ptr @_ZNK4pbrt13TaggedPointerIJNS_10PointLightENS_12DistantLightENS_15ProjectionLightENS_16GoniometricLightENS_9SpotLightENS_16DiffuseAreaLightENS_20UniformInfiniteLightENS_18ImageInfiniteLightENS_24PortalImageInfiniteLightEEE3ptrEv(ptr noundef nonnull align 8 dereferenceable(8) %7)
  %12 = call noundef i32 @_ZNK4pbrt13TaggedPointerIJNS_10PointLightENS_12DistantLightENS_15ProjectionLightENS_16GoniometricLightENS_9SpotLightENS_16DiffuseAreaLightENS_20UniformInfiniteLightENS_18ImageInfiniteLightENS_24PortalImageInfiniteLightEEE3TagEv(ptr noundef nonnull align 8 dereferenceable(8) %7)
  %13 = sub i32 %12, 1
  call void @"_ZN4pbrt6detail11DispatchCPUIRZNKS_5Light6BoundsEvE3$_0N4pstd8optionalINS_11LightBoundsEEENS_10PointLightENS_12DistantLightENS_15ProjectionLightENS_16GoniometricLightENS_9SpotLightENS_16DiffuseAreaLightENS_20UniformInfiniteLightENS_18ImageInfiniteLightEJNS_24PortalImageInfiniteLightEEvEEDaOT_PKvi"(ptr dead_on_unwind writable sret(%"class.pstd::optional.21") align 4 %0, ptr noundef nonnull align 1 dereferenceable(1) %10, ptr noundef %11, i32 noundef %13)
  ret void
}

; Function Attrs: mustprogress uwtable
define dso_local void @_ZNK4pbrt5Light6BoundsEv(ptr dead_on_unwind noalias writable sret(%"class.pstd::optional.21") align 4 %0, ptr noundef nonnull align 8 dereferenceable(8) %1) #1 align 2 {
  %3 = alloca ptr, align 8
  %4 = alloca ptr, align 8
  %5 = alloca %class.anon.106, align 1
  store ptr %0, ptr %3, align 8
  store ptr %1, ptr %4, align 8, !tbaa !475
  %6 = load ptr, ptr %4, align 8
  call void @llvm.lifetime.start.p0(i64 1, ptr %5) #22
  call void @"_ZNK4pbrt13TaggedPointerIJNS_10PointLightENS_12DistantLightENS_15ProjectionLightENS_16GoniometricLightENS_9SpotLightENS_16DiffuseAreaLightENS_20UniformInfiniteLightENS_18ImageInfiniteLightENS_24PortalImageInfiniteLightEEE11DispatchCPUIRZNKS_5Light6BoundsEvE3$_0EEDcOT_"(ptr dead_on_unwind writable sret(%"class.pstd::optional.21") align 4 %0, ptr noundef nonnull align 8 dereferenceable(8) %6, ptr noundef nonnull align 1 dereferenceable(1) %5)
  call void @llvm.lifetime.end.p0(i64 1, ptr %5) #22
  ret void
}