; Function Attrs: mustprogress uwtable
define dso_local void @_ZNK4pbrt5Light6BoundsEv(ptr dead_on_unwind noalias writable writeonly sret(%"class.pstd::optional.21") align 4 captures(none) %0, ptr noundef nonnull readonly align 8 captures(none) dereferenceable(8) %1) local_unnamed_addr #2 align 2 {
  %.val = load i64, ptr %1, align 8, !tbaa !601
  %3 = and i64 %.val, 144115188075855871
  %4 = inttoptr i64 %3 to ptr
  %5 = lshr i64 %.val, 57
  %6 = trunc nuw nsw i64 %5 to i32
  switch i32 %6, label %15 [
    i32 1, label %7
    i32 2, label %8
    i32 3, label %9
    i32 4, label %10
    i32 5, label %11
    i32 6, label %12
    i32 7, label %13
    i32 8, label %14
  ]

7:                                                ; preds = %2
  tail call void @_ZNK4pbrt10PointLight6BoundsEv(ptr dead_on_unwind writable sret(%"class.pstd::optional.21") align 4 %0, ptr noundef nonnull readonly align 8 dereferenceable(164) %4)
  br label %"_ZNK4pbrt13TaggedPointerIJNS_10PointLightENS_12DistantLightENS_15ProjectionLightENS_16GoniometricLightENS_9SpotLightENS_16DiffuseAreaLightENS_20UniformInfiniteLightENS_18ImageInfiniteLightENS_24PortalImageInfiniteLightEEE11DispatchCPUIRZNKS_5Light6BoundsEvE3$_0EEDcOT_.exit"

8:                                                ; preds = %2
  tail call void @llvm.memset.p0.i64(ptr noundef nonnull align 4 dereferenceable(56) %0, i8 0, i64 56, i1 false), !alias.scope !603
  br label %"_ZNK4pbrt13TaggedPointerIJNS_10PointLightENS_12DistantLightENS_15ProjectionLightENS_16GoniometricLightENS_9SpotLightENS_16DiffuseAreaLightENS_20UniformInfiniteLightENS_18ImageInfiniteLightENS_24PortalImageInfiniteLightEEE11DispatchCPUIRZNKS_5Light6BoundsEvE3$_0EEDcOT_.exit"

9:                                                ; preds = %2
  tail call void @_ZNK4pbrt15ProjectionLight6BoundsEv(ptr dead_on_unwind writable sret(%"class.pstd::optional.21") align 4 %0, ptr noundef nonnull align 8 dereferenceable(728) %4)
  br label %"_ZNK4pbrt13TaggedPointerIJNS_10PointLightENS_12DistantLightENS_15ProjectionLightENS_16GoniometricLightENS_9SpotLightENS_16DiffuseAreaLightENS_20UniformInfiniteLightENS_18ImageInfiniteLightENS_24PortalImageInfiniteLightEEE11DispatchCPUIRZNKS_5Light6BoundsEvE3$_0EEDcOT_.exit"

10:                                               ; preds = %2
  tail call void @_ZNK4pbrt16GoniometricLight6BoundsEv(ptr dead_on_unwind writable sret(%"class.pstd::optional.21") align 4 %0, ptr noundef nonnull readonly align 8 dereferenceable(448) %4)
  br label %"_ZNK4pbrt13TaggedPointerIJNS_10PointLightENS_12DistantLightENS_15ProjectionLightENS_16GoniometricLightENS_9SpotLightENS_16DiffuseAreaLightENS_20UniformInfiniteLightENS_18ImageInfiniteLightENS_24PortalImageInfiniteLightEEE11DispatchCPUIRZNKS_5Light6BoundsEvE3$_0EEDcOT_.exit"

11:                                               ; preds = %2
  tail call void @_ZNK4pbrt9SpotLight6BoundsEv(ptr dead_on_unwind writable sret(%"class.pstd::optional.21") align 4 %0, ptr noundef nonnull readonly align 8 dereferenceable(172) %4)
  br label %"_ZNK4pbrt13TaggedPointerIJNS_10PointLightENS_12DistantLightENS_15ProjectionLightENS_16GoniometricLightENS_9SpotLightENS_16DiffuseAreaLightENS_20UniformInfiniteLightENS_18ImageInfiniteLightENS_24PortalImageInfiniteLightEEE11DispatchCPUIRZNKS_5Light6BoundsEvE3$_0EEDcOT_.exit"

12:                                               ; preds = %2
  tail call void @_ZNK4pbrt16DiffuseAreaLight6BoundsEv(ptr dead_on_unwind writable sret(%"class.pstd::optional.21") align 4 %0, ptr noundef nonnull align 8 dereferenceable(352) %4)
  br label %"_ZNK4pbrt13TaggedPointerIJNS_10PointLightENS_12DistantLightENS_15ProjectionLightENS_16GoniometricLightENS_9SpotLightENS_16DiffuseAreaLightENS_20UniformInfiniteLightENS_18ImageInfiniteLightENS_24PortalImageInfiniteLightEEE11DispatchCPUIRZNKS_5Light6BoundsEvE3$_0EEDcOT_.exit"

13:                                               ; preds = %2
  tail call void @llvm.memset.p0.i64(ptr noundef nonnull align 4 dereferenceable(56) %0, i8 0, i64 56, i1 false), !alias.scope !612
  br label %"_ZNK4pbrt13TaggedPointerIJNS_10PointLightENS_12DistantLightENS_15ProjectionLightENS_16GoniometricLightENS_9SpotLightENS_16DiffuseAreaLightENS_20UniformInfiniteLightENS_18ImageInfiniteLightENS_24PortalImageInfiniteLightEEE11DispatchCPUIRZNKS_5Light6BoundsEvE3$_0EEDcOT_.exit"

14:                                               ; preds = %2
  tail call void @llvm.memset.p0.i64(ptr noundef nonnull align 4 dereferenceable(56) %0, i8 0, i64 56, i1 false), !alias.scope !617
  br label %"_ZNK4pbrt13TaggedPointerIJNS_10PointLightENS_12DistantLightENS_15ProjectionLightENS_16GoniometricLightENS_9SpotLightENS_16DiffuseAreaLightENS_20UniformInfiniteLightENS_18ImageInfiniteLightENS_24PortalImageInfiniteLightEEE11DispatchCPUIRZNKS_5Light6BoundsEvE3$_0EEDcOT_.exit"

15:                                               ; preds = %2
  tail call void @llvm.memset.p0.i64(ptr noundef nonnull align 4 dereferenceable(56) %0, i8 0, i64 56, i1 false), !alias.scope !622
  br label %"_ZNK4pbrt13TaggedPointerIJNS_10PointLightENS_12DistantLightENS_15ProjectionLightENS_16GoniometricLightENS_9SpotLightENS_16DiffuseAreaLightENS_20UniformInfiniteLightENS_18ImageInfiniteLightENS_24PortalImageInfiniteLightEEE11DispatchCPUIRZNKS_5Light6BoundsEvE3$_0EEDcOT_.exit"

"_ZNK4pbrt13TaggedPointerIJNS_10PointLightENS_12DistantLightENS_15ProjectionLightENS_16GoniometricLightENS_9SpotLightENS_16DiffuseAreaLightENS_20UniformInfiniteLightENS_18ImageInfiniteLightENS_24PortalImageInfiniteLightEEE11DispatchCPUIRZNKS_5Light6BoundsEvE3$_0EEDcOT_.exit": ; preds = %7, %8, %9, %10, %11, %12, %13, %14, %15
  ret void
}